target datalayout = "e-m:e-p270:32:32-p271:32:32-p272:64:64-i64:64-i128:128-f80:128-n8:16:32:64-S128"
target triple = "x86_64-pc-linux-gnu"

%struct.Vector3 = type { float, float, float }

; Function Attrs: nounwind uwtable
define { <2 x float>, float } @Vector3Min(<2 x float> %0, float %1, <2 x float> %2, float %3) #9 {
  %5 = alloca %struct.Vector3, align 4
  %6 = alloca %struct.Vector3, align 4
  %7 = alloca { <2 x float>, float }, align 4
  %8 = alloca %struct.Vector3, align 4
  %9 = alloca { <2 x float>, float }, align 4
  %10 = alloca { <2 x float>, float }, align 8
  %11 = getelementptr inbounds nuw { <2 x float>, float }, ptr %7, i32 0, i32 0
  store <2 x float> %0, ptr %11, align 4
  %12 = getelementptr inbounds nuw { <2 x float>, float }, ptr %7, i32 0, i32 1
  store float %1, ptr %12, align 4
  call void @llvm.memcpy.p0.p0.i64(ptr align 4 %6, ptr align 4 %7, i64 12, i1 false)
  %13 = getelementptr inbounds nuw { <2 x float>, float }, ptr %9, i32 0, i32 0
  store <2 x float> %2, ptr %13, align 4
  %14 = getelementptr inbounds nuw { <2 x float>, float }, ptr %9, i32 0, i32 1
  store float %3, ptr %14, align 4
  call void @llvm.memcpy.p0.p0.i64(ptr align 4 %8, ptr align 4 %9, i64 12, i1 false)
  call void @llvm.memset.p0.i64(ptr align 4 %5, i8 0, i64 12, i1 false)
  %15 = getelementptr inbounds nuw %struct.Vector3, ptr %6, i32 0, i32 0
  %16 = load float, ptr %15, align 4
  %17 = getelementptr inbounds nuw %struct.Vector3, ptr %8, i32 0, i32 0
  %18 = load float, ptr %17, align 4
  %19 = call float @llvm.minnum.f32(float %16, float %18)
  %20 = getelementptr inbounds nuw %struct.Vector3, ptr %5, i32 0, i32 0
  store float %19, ptr %20, align 4
  %21 = getelementptr inbounds nuw %struct.Vector3, ptr %6, i32 0, i32 1
  %22 = load float, ptr %21, align 4
  %23 = getelementptr inbounds nuw %struct.Vector3, ptr %8, i32 0, i32 1
  %24 = load float, ptr %23, align 4
  %25 = call float @llvm.minnum.f32(float %22, float %24)
  %26 = getelementptr inbounds nuw %struct.Vector3, ptr %5, i32 0, i32 1
  store float %25, ptr %26, align 4
  %27 = getelementptr inbounds nuw %struct.Vector3, ptr %6, i32 0, i32 2
  %28 = load float, ptr %27, align 4
  %29 = getelementptr inbounds nuw %struct.Vector3, ptr %8, i32 0, i32 2
  %30 = load float, ptr %29, align 4
  %31 = call float @llvm.minnum.f32(float %28, float %30)
  %32 = getelementptr inbounds nuw %struct.Vector3, ptr %5, i32 0, i32 2
  store float %31, ptr %32, align 4
  call void @llvm.memcpy.p0.p0.i64(ptr align 8 %10, ptr align 4 %5, i64 12, i1 false)
  %33 = load { <2 x float>, float }, ptr %10, align 8
  ret { <2 x float>, float } %33
}