; Function Attrs: mustprogress nofree norecurse nosync nounwind willreturn memory(none) uwtable
define { <2 x float>, float } @Vector3Min(<2 x float> %0, float %1, <2 x float> %2, float %3) local_unnamed_addr #17 {
  %.sroa.06.0.vec.extract = extractelement <2 x float> %0, i64 0
  %.sroa.03.0.vec.extract = extractelement <2 x float> %2, i64 0
  %5 = tail call float @llvm.minnum.f32(float %.sroa.06.0.vec.extract, float %.sroa.03.0.vec.extract)
  %.sroa.08.0.vec.insert = insertelement <2 x float> poison, float %5, i64 0
  %.sroa.06.4.vec.extract = extractelement <2 x float> %0, i64 1
  %.sroa.03.4.vec.extract = extractelement <2 x float> %2, i64 1
  %6 = tail call float @llvm.minnum.f32(float %.sroa.06.4.vec.extract, float %.sroa.03.4.vec.extract)
  %.sroa.08.4.vec.insert = insertelement <2 x float> %.sroa.08.0.vec.insert, float %6, i64 1
  %7 = tail call float @llvm.minnum.f32(float %1, float %3)
  %.fca.0.insert = insertvalue { <2 x float>, float } poison, <2 x float> %.sroa.08.4.vec.insert, 0
  %.fca.1.insert = insertvalue { <2 x float>, float } %.fca.0.insert, float %7, 1
  ret { <2 x float>, float } %.fca.1.insert
}